; Function Attrs: nounwind sspstrong uwtable
define dso_local void @msix_uninit_exclusive_bar(ptr noundef %dev) local_unnamed_addr #0 {
entry:
  %cap_present.i = getelementptr inbounds nuw i8, ptr %dev, i64 1260
  %0 = load i32, ptr %cap_present.i, align 4
  %and.i = and i32 %0, 2
  %tobool.not = icmp eq i32 %and.i, 0
  br i1 %tobool.not, label %if.end, label %if.then

if.then:                                          ; preds = %entry
  %msix_exclusive_bar = getelementptr inbounds nuw i8, ptr %dev, i64 1328
  tail call void @msix_uninit(ptr noundef nonnull %dev, ptr noundef nonnull %msix_exclusive_bar, ptr noundef nonnull %msix_exclusive_bar)
  br label %if.end

if.end:                                           ; preds = %if.then, %entry
  ret void
}